target datalayout = "e-m:e-p270:32:32-p271:32:32-p272:64:64-i64:64-i128:128-f80:128-n8:16:32:64-S128"
target triple = "x86_64-pc-linux-gnu"

%struct.loopargs_st = type { ptr, ptr, ptr, ptr, ptr, ptr, ptr, [16 x i8], i64, i64, i64, [7 x ptr], [7 x ptr], [7 x ptr], [7 x ptr], [2 x ptr], [2 x ptr], [22 x ptr], [22 x ptr], [24 x ptr], [2 x ptr], [2 x ptr], [1 x ptr], [1 x ptr], [1 x ptr], ptr, ptr, [24 x i64], [5 x ptr], ptr, ptr, ptr, ptr, [111 x ptr], [111 x ptr], [111 x ptr], [111 x i64], [111 x i64], [111 x ptr], [111 x ptr], [111 x ptr], [111 x ptr], [111 x ptr], [111 x ptr], [111 x i64], [111 x i64], [111 x ptr] }

@testmode = internal global i32 0, align 4
@testnum = internal global i32 0, align 4
@run = internal global i32 0, align 4

; Function Attrs: nounwind uwtable
define internal i32 @ECDH_EVP_derive_key_loop(ptr noundef %0) #0 {
  %2 = alloca ptr, align 8
  %3 = alloca ptr, align 8
  %4 = alloca ptr, align 8
  %5 = alloca ptr, align 8
  %6 = alloca i32, align 4
  %7 = alloca ptr, align 8
  store ptr %0, ptr %2, align 8, !tbaa !115
  call void @llvm.lifetime.start.p0(i64 8, ptr %3) #11
  %8 = load ptr, ptr %2, align 8, !tbaa !115
  %9 = load ptr, ptr %8, align 8, !tbaa !37
  store ptr %9, ptr %3, align 8, !tbaa !37
  call void @llvm.lifetime.start.p0(i64 8, ptr %4) #11
  %10 = load ptr, ptr %3, align 8, !tbaa !37
  %11 = getelementptr inbounds nuw %struct.loopargs_st, ptr %10, i32 0, i32 19
  %12 = load i32, ptr @testnum, align 4, !tbaa !4
  %13 = zext i32 %12 to i64
  %14 = getelementptr inbounds nuw [24 x ptr], ptr %11, i64 0, i64 %13
  %15 = load ptr, ptr %14, align 8, !tbaa !27
  store ptr %15, ptr %4, align 8, !tbaa !27
  call void @llvm.lifetime.start.p0(i64 8, ptr %5) #11
  %16 = load ptr, ptr %3, align 8, !tbaa !37
  %17 = getelementptr inbounds nuw %struct.loopargs_st, ptr %16, i32 0, i32 25
  %18 = load ptr, ptr %17, align 8, !tbaa !96
  store ptr %18, ptr %5, align 8, !tbaa !39
  call void @llvm.lifetime.start.p0(i64 4, ptr %6) #11
  call void @llvm.lifetime.start.p0(i64 8, ptr %7) #11
  %19 = load ptr, ptr %3, align 8, !tbaa !37
  %20 = getelementptr inbounds nuw %struct.loopargs_st, ptr %19, i32 0, i32 27
  %21 = load i32, ptr @testnum, align 4, !tbaa !4
  %22 = zext i32 %21 to i64
  %23 = getelementptr inbounds nuw [24 x i64], ptr %20, i64 0, i64 %22
  store ptr %23, ptr %7, align 8, !tbaa !270
  store i32 0, ptr %6, align 4, !tbaa !4
  br label %24

24:                                               ; preds = %40, %1
  %25 = load volatile i32, ptr @run, align 4, !tbaa !4
  %26 = icmp ne i32 %25, 0
  br i1 %26, label %27, label %33

27:                                               ; preds = %24
  %28 = load i32, ptr %6, align 4, !tbaa !4
  %29 = load i32, ptr @testmode, align 4, !tbaa !4
  %30 = icmp ne i32 %29, 0
  %31 = select i1 %30, i32 1, i32 2147483647
  %32 = icmp slt i32 %28, %31
  br label %33

33:                                               ; preds = %27, %24
  %34 = phi i1 [ false, %24 ], [ %32, %27 ]
  br i1 %34, label %35, label %43

35:                                               ; preds = %33
  %36 = load ptr, ptr %4, align 8, !tbaa !27
  %37 = load ptr, ptr %5, align 8, !tbaa !39
  %38 = load ptr, ptr %7, align 8, !tbaa !270
  %39 = call i32 @EVP_PKEY_derive(ptr noundef %36, ptr noundef %37, ptr noundef %38)
  br label %40

40:                                               ; preds = %35
  %41 = load i32, ptr %6, align 4, !tbaa !4
  %42 = add nsw i32 %41, 1
  store i32 %42, ptr %6, align 4, !tbaa !4
  br label %24, !llvm.loop !284

43:                                               ; preds = %33
  %44 = load i32, ptr %6, align 4, !tbaa !4
  call void @llvm.lifetime.end.p0(i64 8, ptr %7) #11
  call void @llvm.lifetime.end.p0(i64 4, ptr %6) #11
  call void @llvm.lifetime.end.p0(i64 8, ptr %5) #11
  call void @llvm.lifetime.end.p0(i64 8, ptr %4) #11
  call void @llvm.lifetime.end.p0(i64 8, ptr %3) #11
  ret i32 %44
}