; Function Attrs: nounwind uwtable
define internal range(i32 0, -2147483648) i32 @ECDH_EVP_derive_key_loop(ptr noundef readonly captures(none) %0) #0 {
  %2 = load ptr, ptr %0, align 8, !tbaa !189
  %3 = getelementptr inbounds nuw i8, ptr %2, i64 704
  %4 = load i32, ptr @testnum, align 4, !tbaa !13
  %5 = zext i32 %4 to i64
  %6 = getelementptr inbounds nuw [24 x ptr], ptr %3, i64 0, i64 %5
  %7 = load ptr, ptr %6, align 8, !tbaa !15
  %8 = getelementptr inbounds nuw i8, ptr %2, i64 952
  %9 = load ptr, ptr %8, align 8, !tbaa !57
  %10 = getelementptr inbounds nuw i8, ptr %2, i64 968
  %11 = getelementptr inbounds nuw [24 x i64], ptr %10, i64 0, i64 %5
  %12 = load volatile i32, ptr @run, align 4, !tbaa !13
  %.not9 = icmp eq i32 %12, 0
  br i1 %.not9, label %.critedge, label %.lr.ph

.lr.ph:                                           ; preds = %1, %15
  %.010 = phi i32 [ %17, %15 ], [ 0, %1 ]
  %.b = load i1, ptr @testmode, align 4
  %13 = select i1 %.b, i32 1, i32 2147483647
  %14 = icmp samesign ult i32 %.010, %13
  br i1 %14, label %15, label %.critedge

15:                                               ; preds = %.lr.ph
  %16 = tail call i32 @EVP_PKEY_derive(ptr noundef %7, ptr noundef %9, ptr noundef nonnull %11) #14
  %17 = add nuw nsw i32 %.010, 1
  %18 = load volatile i32, ptr @run, align 4, !tbaa !13
  %.not = icmp eq i32 %18, 0
  br i1 %.not, label %.critedge, label %.lr.ph, !llvm.loop !225

.critedge:                                        ; preds = %.lr.ph, %15, %1
  %.0.lcssa = phi i32 [ 0, %1 ], [ %17, %15 ], [ %.010, %.lr.ph ]
  ret i32 %.0.lcssa
}